Certificate:
    Data:
        Version: 3 (0x2)
        Serial Number:
            6f:4f:31:6a:b2:da:d4:ce:d0:fc:09:fb:b9:26:90:03:d6:09:a4:8c
        Signature Algorithm: sha256WithRSAEncryption
        Issuer: C = US, ST = USA, O = etcd-ca, OU = CA, CN = etcd-ca
        Validity
            Not Before: Feb 16 12:11:45 2021 GMT
            Not After : Dec 26 12:11:45 2030 GMT
        Subject: C = US, ST = USA, O = etcd-ca, OU = CA, CN = etcd-ca
        Subject Public Key Info:
            Public Key Algorithm: rsaEncryption
                RSA Public-Key: (1024 bit)
                Modulus:
                    00:d3:f5:81:ab:d0:7f:1d:a6:8c:c0:12:2e:65:d9:
                    79:16:c8:ac:b6:24:3d:f2:13:26:c8:f4:0d:59:0d:
                    77:0a:ff:bf:14:3d:0f:82:e2:d0:5b:e8:14:d1:25:
                    60:d6:a1:91:65:15:c1:d4:19:b6:56:5d:bc:92:3f:
                    0e:a0:80:1b:0b:97:87:de:17:50:3e:86:3b:42:8e:
                    56:6c:44:5e:26:9d:f7:2d:8b:19:2b:74:ff:94:1a:
                    5d:fb:52:e9:ec:5b:ad:e6:9f:cb:8c:ea:83:3e:ed:
                    e9:61:07:6c:d1:b1:c6:6b:64:f0:43:29:9c:75:57:
                    e1:2d:f8:11:6b:5f:8f:71:37
                Exponent: 65537 (0x10001)
        X509v3 extensions:
            X509v3 Subject Key Identifier: 
                A1:30:90:76:1A:30:F6:66:64:F8:5D:37:43:3D:20:65:E1:11:2B:A1
            X509v3 Authority Key Identifier: 
                keyid:A1:30:90:76:1A:30:F6:66:64:F8:5D:37:43:3D:20:65:E1:11:2B:A1

            X509v3 Basic Constraints: critical
                CA:TRUE
    Signature Algorithm: sha256WithRSAEncryption
         96:f0:7b:28:3b:7a:06:2e:cd:37:23:19:f3:98:0c:a2:d3:16:
         9e:5a:b7:56:ca:9d:9d:ca:a4:59:78:b3:29:b1:3c:18:e8:dc:
         4c:f6:64:62:84:a3:19:ca:ca:b0:34:ed:d2:6f:9b:a6:38:20:
         98:64:db:c5:cb:a4:ce:b2:9c:62:a2:0e:e2:76:cb:f4:a1:c5:
         40:ee:c5:b4:18:9d:9e:5a:bf:bd:72:29:96:f8:82:05:87:d3:
         fb:84:12:91:ea:e0:86:02:b1:63:c2:59:6a:10:9a:b7:7d:e2:
         be:f3:19:31:31:3e:bb:21:4d:a0:16:f9:c0:94:ba:0f:e6:3d:
         37:26
-----BEGIN CERTIFICATE-----
MIICdDCCAd2gAwIBAgIUb08xarLa1M7Q/An7uSaQA9YJpIwwDQYJKoZIhvcNAQEL
BQAwTDELMAkGA1UEBhMCVVMxDDAKBgNVBAgMA1VTQTEQMA4GA1UECgwHZXRjZC1j
YTELMAkGA1UECwwCQ0ExEDAOBgNVBAMMB2V0Y2QtY2EwHhcNMjEwMjE2MTIxMTQ1
WhcNMzAxMjI2MTIxMTQ1WjBMMQswCQYDVQQGEwJVUzEMMAoGA1UECAwDVVNBMRAw
DgYDVQQKDAdldGNkLWNhMQswCQYDVQQLDAJDQTEQMA4GA1UEAwwHZXRjZC1jYTCB
nzANBgkqhkiG9w0BAQEFAAOBjQAwgYkCgYEA0/WBq9B/HaaMwBIuZdl5FsistiQ9
8hMmyPQNWQ13Cv+/FD0PguLQW+gU0SVg1qGRZRXB1Bm2Vl28kj8OoIAbC5eH3hdQ
PoY7Qo5WbEReJp33LYsZK3T/lBpd+1Lp7Fut5p/LjOqDPu3pYQds0bHGa2TwQymc
dVfhLfgRa1+PcTcCAwEAAaNTMFEwHQYDVR0OBBYEFKEwkHYaMPZmZPhdN0M9IGXh
ESuhMB8GA1UdIwQYMBaAFKEwkHYaMPZmZPhdN0M9IGXhESuhMA8GA1UdEwEB/wQF
MAMBAf8wDQYJKoZIhvcNAQELBQADgYEAlvB7KDt6Bi7NNyMZ85gMotMWnlq3Vsqd
ncqkWXizKbE8GOjcTPZkYoSjGcrKsDTt0m+bpjggmGTbxcukzrKcYqIO4nbL9KHF
QO7FtBidnlq/vXIplviCBYfT+4QSkerghgKxY8JZahCat33ivvMZMTE+uyFNoBb5
wJS6D+Y9NyY=
-----END CERTIFICATE-----
