Certificate:
    Data:
        Version: 3 (0x2)
        Serial Number:
            47:00:00:00:02:f5:40:0d:75:85:dd:87:88:00:00:00:00:00:02
        Signature Algorithm: sha256WithRSAEncryption
        Issuer: DC = org, DC = example, CN = example-CERT-PROV-CA
        Validity
            Not Before: Oct 30 19:07:21 2020 GMT
            Not After : Oct 30 19:07:21 2022 GMT
        Subject: C = US, CN = CERT-PROV-CA-MSCEP-RA
        Subject Public Key Info:
            Public Key Algorithm: rsaEncryption
                RSA Public-Key: (2048 bit)
                Modulus:
                    00:a1:0b:13:03:0a:fc:2f:ed:92:22:3f:a5:01:2d:
                    f9:46:f5:2c:fb:38:f9:0e:f1:b9:48:65:30:61:95:
                    84:15:a2:15:68:16:61:5d:cb:d5:83:d4:69:c7:da:
                    4a:79:a3:c4:a2:e7:5b:33:b1:bc:e0:a1:3e:4e:1b:
                    96:be:ff:34:a1:a5:da:ca:cd:ee:99:5e:91:e3:dc:
                    96:ba:92:0a:77:01:82:2c:cb:c9:b5:30:69:de:39:
                    d3:59:34:86:35:e4:ce:7f:ca:b5:7c:2a:58:14:21:
                    2a:4f:d8:0d:c6:90:17:a3:29:2d:b2:1f:89:e9:53:
                    10:5b:e3:36:01:af:6c:01:08:2c:e8:43:cc:89:3d:
                    99:13:39:85:76:d8:18:3f:df:db:1a:4d:fd:fa:39:
                    fa:f6:7c:86:d9:70:1b:0f:3a:e8:6b:fa:3d:e5:e4:
                    38:c1:3e:3c:d1:c5:c7:74:ca:77:74:a1:0c:f1:dd:
                    f4:28:9b:d9:99:7d:1e:e9:36:9f:6a:da:64:6e:90:
                    59:58:d6:db:e8:e3:5c:08:41:30:bd:14:35:de:0c:
                    4a:9a:9c:1c:1e:ce:86:7d:cc:be:47:37:f6:5c:c4:
                    91:86:7e:9a:9f:9f:d0:de:49:e4:bd:71:b0:d1:33:
                    b1:1f:ca:43:fe:e7:b0:f1:48:cf:40:79:1a:2e:f8:
                    30:d5
                Exponent: 65537 (0x10001)
        X509v3 extensions:
            1.3.6.1.4.1.311.20.2:
                .,.E.n.r.o.l.l.m.e.n.t.A.g.e.n.t.O.f.f.l.i.n.e
            X509v3 Extended Key Usage:
                1.3.6.1.4.1.311.20.2.1
            X509v3 Key Usage: critical
                Digital Signature
            X509v3 Subject Key Identifier:
                D2:DB:A3:DF:13:2B:EE:D5:88:A1:3E:8C:28:0E:2A:00:7B:C7:18:19
            X509v3 Authority Key Identifier:
                keyid:4B:C5:63:29:BB:CF:68:AF:18:1E:C5:99:E8:DF:55:F7:23:9A:08:EB

            X509v3 CRL Distribution Points:

                Full Name:
                  URI:ldap:///CN=example-CERT-PROV-CA,CN=cert-prov-ca,CN=CDP,CN=Public%20Key%20Services,CN=Services,CN=Configuration,DC=example,DC=org?certificateRevocationList?base?objectClass=cRLDistributionPoint

            Authority Information Access:
                CA Issuers - URI:ldap:///CN=example-CERT-PROV-CA,CN=AIA,CN=Public%20Key%20Services,CN=Services,CN=Configuration,DC=example,DC=org?cACertificate?base?objectClass=certificationAuthority

    Signature Algorithm: sha256WithRSAEncryption
         06:c8:d1:6f:ba:9b:48:84:a3:63:8e:4b:0d:73:85:91:7d:e4:
         ce:50:9b:de:09:99:91:a3:1e:e6:ce:6f:ec:bf:2b:ce:bd:8d:
         0a:6c:0e:98:3f:b2:1f:cc:ab:53:62:2a:99:61:2d:76:9d:16:
         5d:27:f4:db:b6:9d:08:91:5b:cb:0c:18:09:b0:ab:38:e8:66:
         ad:7b:45:53:81:11:16:aa:b2:5f:f6:ca:58:c0:fc:3c:98:04:
         a6:0b:cd:28:28:8f:74:96:c4:57:7b:d1:a6:df:c8:ac:2f:cf:
         79:69:2e:ae:7c:e4:af:ad:ef:74:6f:c9:42:f7:03:3d:fe:48:
         25:05:d5:23:96:4a:4b:ed:a2:15:cf:b6:fe:06:d9:53:72:8e:
         d2:14:3f:ab:83:db:22:e1:9b:16:51:f5:b6:ec:05:13:ad:2b:
         fb:a4:1c:4c:97:17:29:5e:15:b9:f9:49:fb:33:7c:6d:b5:89:
         ad:3d:50:64:9d:38:59:87:4d:9c:4f:39:44:48:34:96:77:f2:
         4b:1c:ad:84:94:e9:b7:9f:f7:1b:35:8a:c7:ab:18:14:59:d1:
         f2:14:93:c3:a8:8f:6b:47:53:c9:9f:e2:f5:59:00:34:e6:23:
         2f:ce:5e:84:f9:81:ad:6b:cc:b3:ef:2c:04:5c:de:16:54:ba:
         eb:38:f4:3b
-----BEGIN CERTIFICATE-----
MIIFVDCCBDygAwIBAgITRwAAAAL1QA11hd2HiAAAAAAAAjANBgkqhkiG9w0BAQsF
ADBNMRMwEQYKCZImiZPyLGQBGRYDb3JnMRcwFQYKCZImiZPyLGQBGRYHZXhhbXBs
ZTEdMBsGA1UEAxMUZXhhbXBsZS1DRVJULVBST1YtQ0EwHhcNMjAxMDMwMTkwNzIx
WhcNMjIxMDMwMTkwNzIxWjAtMQswCQYDVQQGEwJVUzEeMBwGA1UEAxMVQ0VSVC1Q
Uk9WLUNBLU1TQ0VQLVJBMIIBIjANBgkqhkiG9w0BAQEFAAOCAQ8AMIIBCgKCAQEA
oQsTAwr8L+2SIj+lAS35RvUs+zj5DvG5SGUwYZWEFaIVaBZhXcvVg9Rpx9pKeaPE
oudbM7G84KE+ThuWvv80oaXays3umV6R49yWupIKdwGCLMvJtTBp3jnTWTSGNeTO
f8q1fCpYFCEqT9gNxpAXoyktsh+J6VMQW+M2Aa9sAQgs6EPMiT2ZEzmFdtgYP9/b
Gk39+jn69nyG2XAbDzroa/o95eQ4wT480cXHdMp3dKEM8d30KJvZmX0e6Tafatpk
bpBZWNbb6ONcCEEwvRQ13gxKmpwcHs6Gfcy+Rzf2XMSRhn6an5/Q3knkvXGw0TOx
H8pD/uew8UjPQHkaLvgw1QIDAQABo4ICSzCCAkcwOwYJKwYBBAGCNxQCBC4eLABF
AG4AcgBvAGwAbABtAGUAbgB0AEEAZwBlAG4AdABPAGYAZgBsAGkAbgBlMBUGA1Ud
JQQOMAwGCisGAQQBgjcUAgEwDgYDVR0PAQH/BAQDAgeAMB0GA1UdDgQWBBTS26Pf
Eyvu1YihPowoDioAe8cYGTAfBgNVHSMEGDAWgBRLxWMpu89orxgexZno31X3I5oI
6zCB1wYDVR0fBIHPMIHMMIHJoIHGoIHDhoHAbGRhcDovLy9DTj1leGFtcGxlLUNF
UlQtUFJPVi1DQSxDTj1jZXJ0LXByb3YtY2EsQ049Q0RQLENOPVB1YmxpYyUyMEtl
eSUyMFNlcnZpY2VzLENOPVNlcnZpY2VzLENOPUNvbmZpZ3VyYXRpb24sREM9ZXhh
bXBsZSxEQz1vcmc/Y2VydGlmaWNhdGVSZXZvY2F0aW9uTGlzdD9iYXNlP29iamVj
dENsYXNzPWNSTERpc3RyaWJ1dGlvblBvaW50MIHGBggrBgEFBQcBAQSBuTCBtjCB
swYIKwYBBQUHMAKGgaZsZGFwOi8vL0NOPWV4YW1wbGUtQ0VSVC1QUk9WLUNBLENO
PUFJQSxDTj1QdWJsaWMlMjBLZXklMjBTZXJ2aWNlcyxDTj1TZXJ2aWNlcyxDTj1D
b25maWd1cmF0aW9uLERDPWV4YW1wbGUsREM9b3JnP2NBQ2VydGlmaWNhdGU/YmFz
ZT9vYmplY3RDbGFzcz1jZXJ0aWZpY2F0aW9uQXV0aG9yaXR5MA0GCSqGSIb3DQEB
CwUAA4IBAQAGyNFvuptIhKNjjksNc4WRfeTOUJveCZmRox7mzm/svyvOvY0KbA6Y
P7IfzKtTYiqZYS12nRZdJ/Tbtp0IkVvLDBgJsKs46Gate0VTgREWqrJf9spYwPw8
mASmC80oKI90lsRXe9Gm38isL895aS6ufOSvre90b8lC9wM9/kglBdUjlkpL7aIV
z7b+BtlTco7SFD+rg9si4ZsWUfW27AUTrSv7pBxMlxcpXhW5+Un7M3xttYmtPVBk
nThZh02cTzlESDSWd/JLHK2ElOm3n/cbNYrHqxgUWdHyFJPDqI9rR1PJn+L1WQA0
5iMvzl6E+YGta8yz7ywEXN4WVLrrOPQ7
-----END CERTIFICATE-----
